target datalayout = "e-m:e-p270:32:32-p271:32:32-p272:64:64-i64:64-i128:128-f80:128-n8:16:32:64-S128"
target triple = "x86_64-pc-linux-gnu"

%struct.obdii_packet_info = type { ptr, i32, i8, i8, i8, i32, i8, i8, i8, i8, i8 }
%struct._packet_info = type { ptr, ptr, i32, i32, %struct.nstime_t, %struct.nstime_t, %struct.nstime_t, i8, ptr, ptr, ptr, ptr, %struct._address, %struct._address, %struct._address, %struct._address, %struct._address, %struct._address, i32, ptr, i8, [3 x i8], %struct.anon, i32, i32, i32, i32, ptr, i8, ptr, ptr, i16, i16, i32, i32, i16, i32, i32, ptr, ptr, ptr, i8, i8, i16, i16, i16, i32, i16, i16, ptr, ptr, ptr, ptr, ptr, i32, i32 }
%struct.nstime_t = type { i64, i32 }
%struct._address = type { i32, i32, ptr, ptr }
%struct.anon = type { i8, [3 x i8] }

@hf_obdii_mode = internal global i32 0, align 4
@ett_obdii = internal global i32 0, align 4
@.str.146 = private unnamed_addr constant [7 x i8] c"OBD-II\00", align 1
@proto_obdii = internal global i32 0, align 4

; Function Attrs: alwaysinline nounwind
define internal ptr @memset.inline(ptr %0, i32 %1, i64 %2) #5 {
  %4 = alloca ptr, align 8
  %5 = alloca i32, align 4
  %6 = alloca i64, align 8
  store ptr %0, ptr %4, align 8
  store i32 %1, ptr %5, align 4
  store i64 %2, ptr %6, align 8
  %7 = load ptr, ptr %4, align 8
  %8 = load i32, ptr %5, align 4
  %9 = load i64, ptr %6, align 8
  %10 = load ptr, ptr %4, align 8
  %11 = call i64 @llvm.objectsize.i64.p0(ptr %10, i1 false, i1 true, i1 true)
  %12 = call ptr @__memset_chk(ptr noundef %7, i32 noundef %8, i64 noundef %9, i64 noundef %11) #8
  ret ptr %12
}

; Function Attrs: null_pointer_is_valid sspstrong uwtable
define internal i32 @dissect_obdii_uds(ptr noundef %0, ptr noundef %1, ptr noundef %2, ptr noundef %3) #0 {
  %5 = alloca i32, align 4
  %6 = alloca ptr, align 8
  %7 = alloca ptr, align 8
  %8 = alloca ptr, align 8
  %9 = alloca ptr, align 8
  %10 = alloca %struct.obdii_packet_info, align 8
  %11 = alloca ptr, align 8
  %12 = alloca ptr, align 8
  %13 = alloca i8, align 1
  %14 = alloca i8, align 1
  %15 = alloca i8, align 1
  %16 = alloca i32, align 4
  store ptr %0, ptr %6, align 8
  store ptr %1, ptr %7, align 8
  store ptr %2, ptr %8, align 8
  store ptr %3, ptr %9, align 8
  call void @llvm.lifetime.start.p0(i64 32, ptr %10) #8
  call void @llvm.lifetime.start.p0(i64 8, ptr %11) #8
  call void @llvm.lifetime.start.p0(i64 8, ptr %12) #8
  call void @llvm.lifetime.start.p0(i64 1, ptr %13) #8
  call void @llvm.lifetime.start.p0(i64 1, ptr %14) #8
  call void @llvm.lifetime.start.p0(i64 1, ptr %15) #8
  %17 = load ptr, ptr %6, align 8
  %18 = call i32 @tvb_reported_length(ptr noundef %17)
  %19 = trunc i32 %18 to i8
  store i8 %19, ptr %13, align 1
  %20 = load ptr, ptr %6, align 8
  %21 = call zeroext i8 @tvb_get_uint8(ptr noundef %20, i32 noundef 0)
  store i8 %21, ptr %14, align 1
  %22 = load i8, ptr %14, align 1
  %23 = zext i8 %22 to i32
  %24 = and i32 %23, 64
  %25 = icmp eq i32 %24, 64
  %26 = zext i1 %25 to i8
  store i8 %26, ptr %15, align 1
  %27 = load i8, ptr %14, align 1
  %28 = zext i8 %27 to i32
  %29 = and i32 %28, 191
  %30 = trunc i32 %29 to i8
  store i8 %30, ptr %14, align 1
  %31 = load ptr, ptr %7, align 8
  %32 = getelementptr inbounds nuw %struct._packet_info, ptr %31, i32 0, i32 1
  %33 = load ptr, ptr %32, align 8
  call void @col_set_str(ptr noundef %33, i32 noundef 35, ptr noundef @.str.146)
  %34 = load ptr, ptr %7, align 8
  %35 = getelementptr inbounds nuw %struct._packet_info, ptr %34, i32 0, i32 1
  %36 = load ptr, ptr %35, align 8
  call void @col_clear(ptr noundef %36, i32 noundef 25)
  %37 = load ptr, ptr %8, align 8
  %38 = load i32, ptr @proto_obdii, align 4
  %39 = load ptr, ptr %6, align 8
  %40 = call ptr @proto_tree_add_item(ptr noundef %37, i32 noundef %38, ptr noundef %39, i32 noundef 0, i32 noundef -1, i32 noundef 0)
  store ptr %40, ptr %12, align 8
  %41 = load ptr, ptr %12, align 8
  %42 = load i32, ptr @ett_obdii, align 4
  %43 = call ptr @proto_item_add_subtree(ptr noundef %41, i32 noundef %42)
  store ptr %43, ptr %11, align 8
  %44 = load ptr, ptr %11, align 8
  %45 = load i32, ptr @hf_obdii_mode, align 4
  %46 = load ptr, ptr %6, align 8
  %47 = load i8, ptr %14, align 1
  %48 = zext i8 %47 to i32
  %49 = call ptr @proto_tree_add_uint(ptr noundef %44, i32 noundef %45, ptr noundef %46, i32 noundef 0, i32 noundef 1, i32 noundef %48)
  %50 = call ptr @memset.inline(ptr noundef %10, i32 noundef 0, i64 noundef 32) #8
  %51 = load ptr, ptr %7, align 8
  %52 = getelementptr inbounds nuw %struct.obdii_packet_info, ptr %10, i32 0, i32 0
  store ptr %51, ptr %52, align 8
  %53 = getelementptr inbounds nuw %struct.obdii_packet_info, ptr %10, i32 0, i32 1
  store i32 0, ptr %53, align 8
  %54 = load i8, ptr %13, align 1
  %55 = getelementptr inbounds nuw %struct.obdii_packet_info, ptr %10, i32 0, i32 2
  store i8 %54, ptr %55, align 4
  %56 = load i8, ptr %14, align 1
  %57 = getelementptr inbounds nuw %struct.obdii_packet_info, ptr %10, i32 0, i32 3
  store i8 %56, ptr %57, align 1
  %58 = load i8, ptr %15, align 1, !range !6, !noundef !7
  %59 = trunc i8 %58 to i1
  br i1 %59, label %64, label %60

60:                                               ; preds = %4
  %61 = load ptr, ptr %6, align 8
  %62 = load ptr, ptr %11, align 8
  %63 = call i32 @dissect_obdii_query(ptr noundef %61, ptr noundef %10, ptr noundef %62)
  store i32 %63, ptr %5, align 4
  store i32 1, ptr %16, align 4
  br label %68

64:                                               ; preds = %4
  %65 = load ptr, ptr %6, align 8
  %66 = load ptr, ptr %11, align 8
  %67 = call i32 @dissect_obdii_response(ptr noundef %65, ptr noundef %10, ptr noundef %66)
  store i32 %67, ptr %5, align 4
  store i32 1, ptr %16, align 4
  br label %68

68:                                               ; preds = %64, %60
  call void @llvm.lifetime.end.p0(i64 1, ptr %15) #8
  call void @llvm.lifetime.end.p0(i64 1, ptr %14) #8
  call void @llvm.lifetime.end.p0(i64 1, ptr %13) #8
  call void @llvm.lifetime.end.p0(i64 8, ptr %12) #8
  call void @llvm.lifetime.end.p0(i64 8, ptr %11) #8
  call void @llvm.lifetime.end.p0(i64 32, ptr %10) #8
  %69 = load i32, ptr %5, align 4
  ret i32 %69
}