; Function Attrs: null_pointer_is_valid sspstrong uwtable
define internal i32 @dissect_obdii_uds(ptr noundef %0, ptr noundef %1, ptr noundef %2, ptr readnone captures(none) %3) #0 {
  %5 = alloca %struct.obdii_packet_info, align 8
  call void @llvm.lifetime.start.p0(i64 32, ptr nonnull %5) #6
  %6 = tail call i32 @tvb_reported_length(ptr noundef %0)
  %7 = trunc i32 %6 to i8
  %8 = tail call zeroext i8 @tvb_get_uint8(ptr noundef %0, i32 noundef 0)
  %9 = and i8 %8, 64
  %.not = icmp eq i8 %9, 0
  %10 = and i8 %8, -65
  %11 = getelementptr inbounds nuw i8, ptr %1, i64 8
  %12 = load ptr, ptr %11, align 8
  tail call void @col_set_str(ptr noundef %12, i32 noundef 35, ptr noundef nonnull @.str.146)
  %13 = load ptr, ptr %11, align 8
  tail call void @col_clear(ptr noundef %13, i32 noundef 25)
  %14 = load i32, ptr @proto_obdii, align 4
  %15 = tail call ptr @proto_tree_add_item(ptr noundef %2, i32 noundef %14, ptr noundef %0, i32 noundef 0, i32 noundef -1, i32 noundef 0)
  %16 = load i32, ptr @ett_obdii, align 4
  %17 = tail call ptr @proto_item_add_subtree(ptr noundef %15, i32 noundef %16)
  %18 = load i32, ptr @hf_obdii_mode, align 4
  %19 = zext i8 %10 to i32
  %20 = tail call ptr @proto_tree_add_uint(ptr noundef %17, i32 noundef %18, ptr noundef %0, i32 noundef 0, i32 noundef 1, i32 noundef %19)
  %21 = getelementptr inbounds nuw i8, ptr %5, i64 8
  call void @llvm.memset.p0.i64(ptr noundef nonnull align 8 dereferenceable(32) %21, i8 noundef 0, i64 noundef 24, i1 noundef false) #6
  store ptr %1, ptr %5, align 8
  %22 = getelementptr inbounds nuw i8, ptr %5, i64 12
  store i8 %7, ptr %22, align 4
  %23 = getelementptr inbounds nuw i8, ptr %5, i64 13
  store i8 %10, ptr %23, align 1
  br i1 %.not, label %24, label %26

24:                                               ; preds = %4
  %25 = call fastcc i32 @dissect_obdii_query(ptr noundef %0, ptr noundef nonnull %5, ptr noundef %17)
  br label %28

26:                                               ; preds = %4
  %27 = call fastcc i32 @dissect_obdii_response(ptr noundef %0, ptr noundef nonnull %5, ptr noundef %17)
  br label %28

28:                                               ; preds = %26, %24
  %.0 = phi i32 [ %27, %26 ], [ %25, %24 ]
  call void @llvm.lifetime.end.p0(i64 32, ptr nonnull %5) #6
  ret i32 %.0
}